target datalayout = "e-m:e-p270:32:32-p271:32:32-p272:64:64-i64:64-i128:128-f80:128-n8:16:32:64-S128"
target triple = "x86_64-pc-linux-gnu"

%"class.toku::concurrent_tree" = type { %"class.toku::treenode" }
%"class.toku::treenode" = type <{ %struct.toku_mutex_t, %"class.toku::keyrange", i64, i8, [7 x i8], ptr, %"struct.toku::treenode::child_ptr", %"struct.toku::treenode::child_ptr", ptr, i8, i8, [6 x i8] }>
%struct.toku_mutex_t = type { %union.pthread_mutex_t, ptr }
%union.pthread_mutex_t = type { %struct.__pthread_mutex_s }
%struct.__pthread_mutex_s = type { i32, i32, i32, i32, i32, i16, i16, %struct.__pthread_internal_list }
%struct.__pthread_internal_list = type { ptr, ptr }
%"class.toku::keyrange" = type <{ %struct.__toku_dbt, %struct.__toku_dbt, ptr, ptr, i8, [7 x i8] }>
%struct.__toku_dbt = type { ptr, i64, i64, i32 }
%"struct.toku::treenode::child_ptr" = type { ptr, i32 }
%"class.toku::concurrent_tree::locked_keyrange" = type { ptr, %"class.toku::keyrange", ptr }

; Function Attrs: mustprogress uwtable
define void @_ZN4toku15concurrent_tree15locked_keyrange7acquireERKNS_8keyrangeE(ptr noundef nonnull align 8 dereferenceable(104) %0, ptr noundef nonnull align 8 dereferenceable(81) %1) #0 align 2 {
  %3 = alloca ptr, align 8
  %4 = alloca ptr, align 8
  %5 = alloca ptr, align 8
  %6 = alloca ptr, align 8
  %7 = alloca ptr, align 8
  store ptr %0, ptr %3, align 8, !tbaa !11
  store ptr %1, ptr %4, align 8, !tbaa !30
  %8 = load ptr, ptr %3, align 8
  call void @llvm.lifetime.start.p0(i64 8, ptr %5) #5
  %9 = getelementptr inbounds nuw %"class.toku::concurrent_tree::locked_keyrange", ptr %8, i32 0, i32 0
  %10 = load ptr, ptr %9, align 8, !tbaa !15
  %11 = getelementptr inbounds nuw %"class.toku::concurrent_tree", ptr %10, i32 0, i32 0
  store ptr %11, ptr %5, align 8, !tbaa !13
  call void @llvm.lifetime.start.p0(i64 8, ptr %6) #5
  %12 = load ptr, ptr %5, align 8, !tbaa !13
  %13 = call noundef zeroext i1 @_ZN4toku8treenode8is_emptyEv(ptr noundef nonnull align 8 dereferenceable(202) %12)
  br i1 %13, label %18, label %14

14:                                               ; preds = %2
  %15 = load ptr, ptr %5, align 8, !tbaa !13
  %16 = load ptr, ptr %4, align 8, !tbaa !30
  %17 = call noundef zeroext i1 @_ZN4toku8treenode14range_overlapsERKNS_8keyrangeE(ptr noundef nonnull align 8 dereferenceable(202) %15, ptr noundef nonnull align 8 dereferenceable(81) %16)
  br i1 %17, label %18, label %20

18:                                               ; preds = %14, %2
  %19 = load ptr, ptr %5, align 8, !tbaa !13
  store ptr %19, ptr %6, align 8, !tbaa !13
  br label %25

20:                                               ; preds = %14
  call void @llvm.lifetime.start.p0(i64 8, ptr %7) #5
  store ptr null, ptr %7, align 8, !tbaa !25
  %21 = load ptr, ptr %5, align 8, !tbaa !13
  %22 = load ptr, ptr %4, align 8, !tbaa !30
  %23 = load ptr, ptr %7, align 8, !tbaa !25
  %24 = call noundef ptr @_ZN4toku8treenode32find_node_with_overlapping_childERKNS_8keyrangeEPKNS1_10comparisonE(ptr noundef nonnull align 8 dereferenceable(202) %21, ptr noundef nonnull align 8 dereferenceable(81) %22, ptr noundef %23)
  store ptr %24, ptr %6, align 8, !tbaa !13
  call void @llvm.lifetime.end.p0(i64 8, ptr %7) #5
  br label %25

25:                                               ; preds = %20, %18
  %26 = load ptr, ptr %4, align 8, !tbaa !30
  %27 = getelementptr inbounds nuw %"class.toku::concurrent_tree::locked_keyrange", ptr %8, i32 0, i32 1
  call void @llvm.memcpy.p0.p0.i64(ptr align 8 %27, ptr align 8 %26, i64 81, i1 false), !tbaa.struct !24
  %28 = load ptr, ptr %6, align 8, !tbaa !13
  %29 = getelementptr inbounds nuw %"class.toku::concurrent_tree::locked_keyrange", ptr %8, i32 0, i32 2
  store ptr %28, ptr %29, align 8, !tbaa !23
  call void @llvm.lifetime.end.p0(i64 8, ptr %6) #5
  call void @llvm.lifetime.end.p0(i64 8, ptr %5) #5
  ret void
}