; Function Attrs: mustprogress uwtable
define void @_ZN4toku15concurrent_tree15locked_keyrange7acquireERKNS_8keyrangeE(ptr noundef nonnull align 8 captures(none) dereferenceable(104) initializes((8, 89), (96, 104)) %0, ptr noundef nonnull align 8 dereferenceable(81) %1) local_unnamed_addr #0 align 2 {
  %3 = load ptr, ptr %0, align 8, !tbaa !4
  %4 = tail call noundef zeroext i1 @_ZN4toku8treenode8is_emptyEv(ptr noundef nonnull align 8 dereferenceable(202) %3)
  br i1 %4, label %9, label %5

5:                                                ; preds = %2
  %6 = tail call noundef zeroext i1 @_ZN4toku8treenode14range_overlapsERKNS_8keyrangeE(ptr noundef nonnull align 8 dereferenceable(202) %3, ptr noundef nonnull align 8 dereferenceable(81) %1)
  br i1 %6, label %9, label %7

7:                                                ; preds = %5
  %8 = tail call noundef ptr @_ZN4toku8treenode32find_node_with_overlapping_childERKNS_8keyrangeEPKNS1_10comparisonE(ptr noundef nonnull align 8 dereferenceable(202) %3, ptr noundef nonnull align 8 dereferenceable(81) %1, ptr noundef null)
  br label %9

9:                                                ; preds = %2, %5, %7
  %.0 = phi ptr [ %8, %7 ], [ %3, %5 ], [ %3, %2 ]
  %10 = getelementptr inbounds nuw i8, ptr %0, i64 8
  tail call void @llvm.memcpy.p0.p0.i64(ptr noundef nonnull align 8 dereferenceable(81) %10, ptr noundef nonnull align 8 dereferenceable(81) %1, i64 81, i1 false), !tbaa.struct !18
  %11 = getelementptr inbounds nuw i8, ptr %0, i64 96
  store ptr %.0, ptr %11, align 8, !tbaa !17
  ret void
}